ccopy_reg
_reconstructor
p0
(cmoveit_msgs.msg._RobotTrajectory
RobotTrajectory
p1
c__builtin__
object
p2
Ntp3
Rp4
(lp5
g0
(ctrajectory_msgs.msg._JointTrajectory
JointTrajectory
p6
g2
Ntp7
Rp8
(lp9
g0
(cstd_msgs.msg._Header
Header
p10
g2
Ntp11
Rp12
(lp13
I0
ag0
(cgenpy.rostime
Time
p14
g2
Ntp15
Rp16
(lp17
I0
aI0
abaS'/base_footprint'
p18
aba(lp19
S'body_rotate_joint'
p20
aS'elevation_joint'
p21
aS'arm_base_joint'
p22
aS'arm1_joint'
p23
aS'arm2_joint'
p24
aS'arm3_joint'
p25
aS'arm4_joint'
p26
aS'arm5_joint'
p27
aS'arm6_joint'
p28
aa(lp29
g0
(ctrajectory_msgs.msg._JointTrajectoryPoint
JointTrajectoryPoint
p30
g2
Ntp31
Rp32
(lp33
(F5.2576547179854804e-05
F-0.2130967098246992
F0.0
F-0.00011266402967111743
F1.5707118287726431
F-3.1414737304473626
F6.259112759506523e-05
F-6.20561511820206e-05
F-6.20561511820206e-05
tp34
a(F0.0
F0.0
F0.0
F0.0
F0.0
F0.0
F0.0
F0.0
F0.0
tp35
a(F-0.00436933021431912
F0.0
F0.0
F0.0
F0.0
F0.0
F0.0
F0.0
F0.0
tp36
a(tag0
(cgenpy.rostime
Duration
p37
g2
Ntp38
Rp39
(lp40
I0
aI0
ababag0
(g30
g2
Ntp41
Rp42
(lp43
(F-0.00047155960840201326
F-0.209294380120011
F-6.12509413409631e-23
F0.001316722570048207
F1.536052363062017
F-3.021623947717293
F0.004556232083786601
F0.007210109279022576
F-0.005925881060622328
tp44
a(F-0.0018265281317926632
F0.013250492449340371
F-2.1344943726282715e-22
F0.004981176756822696
F-0.12078252659956631
F0.4176567432229321
F0.015659598242269136
F0.0253422981716896
F-0.020434463531921642
tp45
a(F-0.0043679411653044595
F0.03168709554625092
F-5.104408563454896e-22
F0.011911936437808666
F-0.2888381300023743
F0.9987801720305123
F0.03744820712255042
F0.060603319204780924
F-0.04886677237453312
tp46
a(tag0
(g37
g2
Ntp47
Rp48
(lp49
I0
aI489812228
ababag0
(g30
g2
Ntp50
Rp51
(lp52
(F-0.0009956957639838814
F-0.20549205041532284
F-1.225018826819262e-22
F0.0027461091697675317
F1.5013928973513913
F-2.901774164987223
F0.009049873039978137
F0.014482274709227172
F-0.011789705970062637
tp53
a(F-0.002972543127111563
F0.02156422317047647
F-3.4737360278087997e-22
F0.008106506806927156
F-0.19656487248643484
F0.6797063017806587
F0.025484869528234224
F0.04124276705310498
F-0.033255619265173536
tp54
a(F-0.004342775816683508
F0.03150453429461682
F-5.075000149709882e-22
F0.011843307300678969
F-0.2871740251160191
F0.9930258245533731
F0.03723245394461057
F0.06025416073454115
F-0.04858523255605871
tp55
a(tag0
(g37
g2
Ntp56
Rp57
(lp58
I0
aI692731352
ababag0
(g30
g2
Ntp59
Rp60
(lp61
(F-0.0015198319195657496
F-0.20168972071063465
F-1.837528240228893e-22
F0.004175495769486857
F1.4667334316407652
F-2.781924382257153
F0.013543513996169675
F0.02175444013943177
F-0.017653530879502943
tp62
a(F-0.003430363161337481
F0.024885464601734127
F-4.008747928103272e-22
F0.00935504082816652
F-0.22683906290223543
F0.7843921377931266
F0.029409954326245748
F0.047594824606655636
F-0.03837752602956089
tp63
a(F-0.0008931086211847412
F0.0064790291676672905
F-1.043693383574476e-22
F0.002435621892555895
F-0.059058447508650545
F0.20421959649875115
F0.007656997968453667
F0.012391500893860628
F-0.00999174074134469
tp64
a(tag0
(g37
g2
Ntp65
Rp66
(lp67
I0
aI848626558
ababag0
(g30
g2
Ntp68
Rp69
(lp70
(F-0.0020439680751476175
F-0.19788739100594646
F-2.450037653638524e-22
F0.005604882369206181
F1.4320739659301391
F-2.6620745995270836
F0.018037154952361207
F0.029026605569636366
F-0.02351735578894325
tp71
a(F-0.003498620647564116
F0.02538063644722284
F-4.088514134659045e-22
F0.009541187757936258
F-0.23135271451388367
F0.8
F0.02999515462660315
F0.04854186809221511
F-0.03914116338548264
tp72
a(F-1.7368977429525966e-17
F-1.2274077383531682e-15
F0.0
F3.473795485905193e-17
F9.819261906825346e-15
F0.0
F1.3895181943620773e-16
F0.0
F0.0
tp73
a(tag0
(g37
g2
Ntp74
Rp75
(lp76
I0
aI998438786
ababag0
(g30
g2
Ntp77
Rp78
(lp79
(F-0.0025681042307294857
F-0.1940850613012583
F-3.062547067048155e-22
F0.007034268968925506
F1.3974145002195133
F-2.542224816797014
F0.022530795908552743
F0.03629877099984096
F-0.02938118069838356
tp80
a(F-0.003498620647564111
F0.02538063644722279
F-4.088514134659039e-22
F0.00954118775793624
F-0.23135271451388323
F0.8
F0.02999515462660312
F0.048541868092215036
F-0.039141163385482576
tp81
a(F8.684488714762967e-17
F6.021245508902324e-16
F8.160309327275608e-36
F-2.7790363887241497e-16
F-4.075920036795419e-15
F0.0
F-5.789659143175312e-16
F-1.0189800091988548e-15
F8.337109166172449e-16
tp82
a(tag0
(g37
g2
Ntp83
Rp84
(lp85
I1
aI148251015
ababag0
(g30
g2
Ntp86
Rp87
(lp88
(F-0.003092240386311354
F-0.1902827315965701
F-3.675056480457786e-22
F0.00846365556864483
F1.3627550345088872
F-2.422375034066944
F0.027024436864744282
F0.04357093643004556
F-0.03524500560782387
tp89
a(F-0.0034986206475641083
F0.025380636447222882
F-4.088514134659037e-22
F0.00954118775793623
F-0.23135271451388395
F0.8
F0.02999515462660312
F0.04854186809221503
F-0.03914116338548256
tp90
a(F-4.921210271699015e-17
F6.252831874629337e-16
F-5.963302969932175e-36
F1.6211045600890873e-16
F-5.743341870029909e-15
F0.0
F5.789659143175312e-16
F8.800281897626474e-16
F-6.484418240356349e-16
tp91
a(tag0
(g37
g2
Ntp92
Rp93
(lp94
I1
aI298063243
ababag0
(g30
g2
Ntp95
Rp96
(lp97
(F-0.0036163765418932214
F-0.18648040189188192
F-4.287565893867417e-22
F0.009893042168364152
F1.3280955687982612
F-2.3025252513368746
F0.03151807782093582
F0.05084310186025015
F-0.041108830517264175
tp98
a(F-0.0034986206475641083
F0.025380636447222882
F-4.088514134659037e-22
F0.009541187757936238
F-0.23135271451388323
F0.8
F0.029995154626603106
F0.04854186809221503
F-0.03914116338548256
tp99
a(F4.921210271699015e-17
F-6.252831874629337e-16
F5.963302969932175e-36
F-8.105522800445436e-17
F1.5562603776855238e-14
F0.0
F-7.410763703264399e-16
F-8.800281897626474e-16
F6.484418240356349e-16
tp100
a(tag0
(g37
g2
Ntp101
Rp102
(lp103
I1
aI447875471
ababag0
(g30
g2
Ntp104
Rp105
(lp106
(F-0.00414051269747509
F-0.18267807218719373
F-4.900075307277048e-22
F0.011322428768083478
F1.2934361030876353
F-2.1826754686068046
F0.036011718777127354
F0.05811526729045475
F-0.046972655426704486
tp107
a(F-0.003498620647564111
F0.02538063644722279
F-4.088514134659037e-22
F0.009541187757936243
F-0.23135271451388323
F0.8
F0.029995154626603106
F0.04854186809221505
F-0.03914116338548256
tp108
a(F-8.684488714762967e-17
F-6.021245508902324e-16
F-5.963302969932175e-36
F1.6211045600890873e-16
F-1.5562603776855238e-14
F0.0
F7.410763703264399e-16
F1.2042491017804647e-15
F-6.484418240356349e-16
tp109
a(tag0
(g37
g2
Ntp110
Rp111
(lp112
I1
aI597687700
ababag0
(g30
g2
Ntp113
Rp114
(lp115
(F-0.004664648853056958
F-0.17887574248250557
F-5.512584720686678e-22
F0.012751815367802802
F1.2587766373770093
F-2.062825685876735
F0.04050535973331889
F0.06538743272065935
F-0.05283648033614479
tp116
a(F-0.003498620647564111
F0.02538063644722279
F-4.088514134659037e-22
F0.009541187757936243
F-0.23135271451388323
F0.8
F0.029995154626603106
F0.04854186809221507
F-0.03914116338548256
tp117
a(F8.684488714762967e-17
F6.021245508902324e-16
F5.963302969932175e-36
F-1.6211045600890873e-16
F1.5562603776855238e-14
F0.0
F-7.410763703264399e-16
F-9.2634546290805e-16
F6.484418240356349e-16
tp118
a(tag0
(g37
g2
Ntp119
Rp120
(lp121
I1
aI747499928
ababag0
(g30
g2
Ntp122
Rp123
(lp124
(F-0.005188785008638826
F-0.17507341277781738
F-6.12509413409631e-22
F0.014181201967522128
F1.2241171716663835
F-1.9429759031466651
F0.044999000689510425
F0.07265959815086395
F-0.0587003052455851
tp125
a(F-0.0034986206475641074
F0.02538063644722286
F-4.0885141346590364e-22
F0.00954118775793624
F-0.231352714513883
F0.8
F0.029995154626603078
F0.048541868092215
F-0.03914116338548253
tp126
a(F-4.34224435738148e-17
F3.2422091201781716e-16
F-5.021728816784985e-36
F1.1579318286350612e-16
F-1.2783567388131077e-14
F0.0
F3.705381851632196e-16
F0.0
F-1.852690925816098e-16
tp127
a(tag0
(g37
g2
Ntp128
Rp129
(lp130
I1
aI897312157
ababag0
(g30
g2
Ntp131
Rp132
(lp133
(F-0.0057129211642206945
F-0.1712710830731292
F-6.737603547505941e-22
F0.015610588567241453
F1.1894577059557574
F-1.8231261204165954
F0.04949264164570196
F0.07993176358106854
F-0.0645641301550254
tp134
a(F-0.003498620647564111
F0.02538063644722279
F-4.08851413465904e-22
F0.009541187757936243
F-0.23135271451388398
F0.8
F0.02999515462660313
F0.04854186809221504
F-0.03914116338548254
tp135
a(F0.0
F-1.2505663749258674e-15
F0.0
F-6.947590971810374e-17
F0.0
F0.0
F3.2422091201781745e-16
F6.021245508902324e-16
F0.0
tp136
a(tag0
(g37
g2
Ntp137
Rp138
(lp139
I2
aI47124385
ababag0
(g30
g2
Ntp140
Rp141
(lp142
(F-0.006237057319802563
F-0.16746875336844103
F-7.350112960915572e-22
F0.017039975166960777
F1.1547982402451313
F-1.7032763376865256
F0.053986282601893504
F0.08720392901127315
F-0.07042795506446571
tp143
a(F-0.0034986206475641083
F0.025380636447222812
F-4.088514134659038e-22
F0.009541187757936234
F-0.23135271451388345
F0.8
F0.029995154626603113
F0.04854186809221504
F-0.039141163385482576
tp144
a(F3.1843125287464243e-17
F1.5516286503709849e-15
F3.1385805104906214e-36
F-4.6317273145402536e-17
F7.0402255181011854e-15
F0.0
F-5.558072777448304e-16
F-6.02124550890233e-16
F-4.631727314540254e-16
tp145
a(tag0
(g37
g2
Ntp146
Rp147
(lp148
I2
aI196936613
ababag0
(g30
g2
Ntp149
Rp150
(lp151
(F-0.006761193475384429
F-0.16366642366375284
F-7.962622374325202e-22
F0.018469361766680098
F1.1201387745345055
F-1.5834265549564561
F0.058479923558085026
F0.09447609444147773
F-0.07629177997390602
tp152
a(F-0.0034986206475641083
F0.02538063644722291
F-4.088514134659038e-22
F0.009541187757936234
F-0.23135271451388345
F0.8
F0.02999515462660309
F0.04854186809221504
F-0.039141163385482576
tp153
a(F-3.1843125287464243e-17
F-3.010622754451165e-16
F-3.1385805104906214e-36
F4.6317273145402536e-17
F-7.0402255181011854e-15
F0.0
F2.315863657270127e-16
F6.02124550890233e-16
F4.631727314540254e-16
tp154
a(tag0
(g37
g2
Ntp155
Rp156
(lp157
I2
aI346748842
ababag0
(g30
g2
Ntp158
Rp159
(lp160
(F-0.0072853296309662975
F-0.15986409395906465
F-8.575131787734833e-22
F0.019898748366399422
F1.0854793088238794
F-1.4635767722263864
F0.06297356451427656
F0.10174825987168233
F-0.08215560488334632
tp161
a(F-0.0034137190738369335
F0.02476472057818836
F-3.989297523541155e-22
F0.009309650264313078
F-0.22573844205426152
F0.7805862750426995
F0.02926725752413739
F0.04736389499714527
F-0.038191318659889395
tp162
a(F0.0011052503959735809
F-0.008018005182381138
F1.2916038409085124e-22
F-0.0030141597531755902
F0.07308671190290295
F-0.2527282623208909
F-0.00947577913353477
F-0.015334877465944826
F0.012365097759538835
tp163
a(tag0
(g37
g2
Ntp164
Rp165
(lp166
I2
aI496561070
ababag0
(g30
g2
Ntp167
Rp168
(lp169
(F-0.007809465786548166
F-0.15606176425437646
F-9.187641201144464e-22
F0.02132813496611875
F1.0508198431132536
F-1.3437269894963166
F0.0674672054704681
F0.10902042530188692
F-0.08801942979278662
tp170
a(F-0.0029450191982483545
F0.021364551670634765
F-3.441571359633952e-22
F0.008031445518615501
F-0.19474480215070863
F0.6734126377031027
F0.025248895244266524
F0.04086088428876826
F-0.032947692597732406
tp171
a(F0.004239726266691332
F-0.030756964487006273
F4.954575678423784e-22
F-0.011562277945429914
F0.280359684402408
F-0.969462355318388
F-0.03634896656555736
F-0.05882439221529118
F0.04743235555698934
tp172
a(tag0
(g37
g2
Ntp173
Rp174
(lp175
I2
aI654015228
ababag0
(g30
g2
Ntp176
Rp177
(lp178
(F-0.008333601942130033
F-0.1522594345496883
F-9.800150614554096e-22
F0.022757521565838074
F1.0161603774026275
F-1.223877206766247
F0.07196084642665963
F0.11629259073209153
F-0.09388325470222694
tp179
a(F-0.00181564829043
F0.013171564973044409
F-2.1217801090155374e-22
F0.004951506032364472
F-0.12006307711181378
F0.41516894189580317
F0.015566320760409771
F0.025191345016863223
F-0.020312744234151955
tp180
a(F0.004294430972730484
F-0.031153818103272307
F5.01850400515723e-22
F-0.011711464703338512
F0.2839771335384521
F-0.9819712178787859
F-0.036817973148934945
F-0.05958339666077989
F0.04804436984854374
tp181
a(tag0
(g37
g2
Ntp182
Rp183
(lp184
I2
aI858658317
ababag0
(g30
g2
Ntp185
Rp186
(lp187
(F-0.008857738097711901
F-0.1484571048450001
F-1.0412660027963726e-21
F0.024186908165557398
F0.9815009116920015
F-1.1040274240361772
F0.07645448738285117
F0.12356475616229612
F-0.09974707961166725
tp188
a(F0.0
F0.0
F0.0
F0.0
F0.0
F0.0
F0.0
F0.0
F0.0
tp189
a(F0.004369330214319117
F-0.03169717235983008
F5.106031816474364e-22
F-0.011915724552837088
F0.2889299834190539
F-0.9990977941232311
F-0.03746011602728049
F-0.060622591666941075
F0.04888231249731573
tp190
a(tag0
(g37
g2
Ntp191
Rp192
(lp193
I3
aI348470545
ababaabag0
(ctrajectory_msgs.msg._MultiDOFJointTrajectory
MultiDOFJointTrajectory
p194
g2
Ntp195
Rp196
(lp197
g0
(g10
g2
Ntp198
Rp199
(lp200
I0
ag0
(g14
g2
Ntp201
Rp202
(lp203
I0
aI0
abaS''
p204
aba(lp205
a(lp206
abab.