ccopy_reg
_reconstructor
p0
(cmoveit_msgs.msg._RobotTrajectory
RobotTrajectory
p1
c__builtin__
object
p2
Ntp3
Rp4
(lp5
g0
(ctrajectory_msgs.msg._JointTrajectory
JointTrajectory
p6
g2
Ntp7
Rp8
(lp9
g0
(cstd_msgs.msg._Header
Header
p10
g2
Ntp11
Rp12
(lp13
I0
ag0
(cgenpy.rostime
Time
p14
g2
Ntp15
Rp16
(lp17
I0
aI0
abaS'/base_footprint'
p18
aba(lp19
S'body_rotate_joint'
p20
aS'elevation_joint'
p21
aS'arm_base_joint'
p22
aS'arm1_joint'
p23
aS'arm2_joint'
p24
aS'arm3_joint'
p25
aS'arm4_joint'
p26
aS'arm5_joint'
p27
aS'arm6_joint'
p28
aa(lp29
g0
(ctrajectory_msgs.msg._JointTrajectoryPoint
JointTrajectoryPoint
p30
g2
Ntp31
Rp32
(lp33
(F-2.7540096141828708e-05
F-0.212968224148886
F0.0
F-6.259112759506523e-05
F1.5706993105471243
F-3.1414737304473626
F3.7554676557039145e-05
F2.0685383727340202e-05
F2.0685383727340202e-05
tp34
a(F0.0
F0.0
F0.0
F0.0
F0.0
F0.0
F0.0
F0.0
F0.0
tp35
a(F-0.004388758895776685
F0.0
F0.0
F0.0
F0.0
F0.0
F0.0
F0.0
F0.0
tp36
a(tag0
(cgenpy.rostime
Duration
p37
g2
Ntp38
Rp39
(lp40
I0
aI0
ababag0
(g30
g2
Ntp41
Rp42
(lp43
(F-0.0005449069479130943
F-0.20915743059619005
F0.0
F0.001577506592282851
F1.536101644591712
F-3.0250252532764494
F0.0027426830717784674
F0.010594445925924857
F-0.004310027516268383
tp44
a(F-0.0018252826454645146
F0.013444570933313646
F0.0
F0.005786304040759474
F-0.12206139420372453
F0.41083301673298833
F0.00954375777390147
F0.037304480464673065
F-0.015278858844142365
tp45
a(F-0.004432147643589232
F0.03264608006284383
F0.0
F0.014050291818129022
F-0.2963892315732688
F0.9975839038114399
F0.023174133405415194
F0.09058266433292271
F-0.037100094273654
tp46
a(tag0
(g37
g2
Ntp47
Rp48
(lp49
I0
aI485560596
ababag0
(g30
g2
Ntp50
Rp51
(lp52
(F-0.0010622737996843598
F-0.20534663704349412
F0.0
F0.0032176043121607675
F1.5015039786362998
F-2.9085767761055368
F0.005447811466999896
F0.021168206468122373
F-0.008640740416264106
tp53
a(F-0.0029501130788270706
F0.02172978779376556
F0.0
F0.009352113915689068
F-0.19728172858874327
F0.6640088639913236
F0.015425098518251166
F0.06029336661428335
F-0.02469445563275275
tp54
a(F-0.004099429403685923
F0.030195361546289393
F0.0
F0.012995546186941001
F-0.2741394981741594
F0.9226959742290322
F0.021434467334252832
F0.08378268674503798
F-0.03431501600920766
tp55
a(tag0
(g37
g2
Ntp56
Rp57
(lp58
I0
aI685697782
ababag0
(g30
g2
Ntp59
Rp60
(lp61
(F-0.0015796406514556258
F-0.20153584349079817
F0.0
F0.0048577020320386835
F1.4669063126808877
F-2.7921282989346237
F0.008152939862221325
F0.031741967010319894
F-0.012971453316259828
tp62
a(F-0.0034347353597684724
F0.025299393108411387
F0.0
F0.010888408510622706
F-0.22968967999335652
F0.7730872218828542
F0.01795901712676526
F0.07019790521111147
F-0.02875107417434067
tp63
a(F-0.0015857012244940665
F0.011679874700351048
F0.0
F0.0050268101904800255
F-0.10603996193864101
F0.35690824065785964
F0.00829107120804244
F0.03240800020694493
F-0.013273399184630528
tp64
a(tag0
(g37
g2
Ntp65
Rp66
(lp67
I0
aI841758443
ababag0
(g30
g2
Ntp68
Rp69
(lp70
(F-0.0020970075032268913
F-0.19772504993810225
F0.0
F0.0064977997519166
F1.4323086467254753
F-2.675679821763711
F0.010858068257442753
F0.042315727552517404
F-0.017302166216255552
tp71
a(F-0.003554305659227608
F0.026180117732945794
F0.0
F0.011267456713723955
F-0.23768565666776686
F0.8
F0.018584207958347636
F0.07264164065746107
F-0.02975195901369826
tp72
a(F7.448459259070996e-17
F6.197118103547068e-16
F0.0
F-2.6218576591929906e-16
F6.2924583820631765e-15
F0.0
F-4.767013925805437e-16
F-1.6207847347738486e-15
F9.295677155320603e-16
tp73
a(tag0
(g37
g2
Ntp74
Rp75
(lp76
I0
aI987319040
ababag0
(g30
g2
Ntp77
Rp78
(lp79
(F-0.002614374354998157
F-0.1939142563854063
F0.0
F0.008137897471794516
F1.397710980770063
F-2.559231344592798
F0.013563196652664181
F0.05288948809471492
F-0.021632879116251273
tp80
a(F-0.0035543056592276024
F0.02618011773294584
F0.0
F0.011267456713723933
F-0.23768565666776564
F0.8
F0.0185842079583476
F0.07264164065746094
F-0.029751959013698204
tp81
a(F0.0
F0.0
F0.0
F-3.575260444354071e-17
F1.0487430636771942e-14
F0.0
F0.0
F0.0
F-1.6684548740318997e-16
tp82
a(tag0
(g37
g2
Ntp83
Rp84
(lp85
I1
aI132879636
ababag0
(g30
g2
Ntp86
Rp87
(lp88
(F-0.003131741206769423
F-0.19010346283271035
F0.0
F0.009777995191672433
F1.3631133148146508
F-2.4427828674218848
F0.01626832504788561
F0.06346324863691244
F-0.025963592016246997
tp89
a(F-0.0035543056592276063
F0.026180117732945794
F0.0
F0.011267456713723954
F-0.2376856566677653
F0.8
F0.01858420795834763
F0.07264164065746107
F-0.029751959013698263
tp90
a(F-5.3628906665311165e-17
F-6.197118103547068e-16
F0.0
F2.9793837036283984e-16
F-6.2924583820631765e-15
F0.0
F4.0519618369346215e-16
F1.6207847347738486e-15
F-6.197118103547068e-16
tp91
a(tag0
(g37
g2
Ntp92
Rp93
(lp94
I1
aI278440232
ababag0
(g30
g2
Ntp95
Rp96
(lp97
(F-0.0036491080585406882
F-0.18629266928001442
F0.0
F0.011418092911550349
F1.3285156488592387
F-2.326334390250972
F0.018973453443107035
F0.07403700917910995
F-0.030294304916242718
tp98
a(F-0.0035543056592276037
F0.026180117732945794
F0.0
F0.011267456713723954
F-0.2376856566677661
F0.8
F0.018584207958347636
F0.07264164065746104
F-0.029751959013698273
tp99
a(F9.236089481248034e-17
F6.197118103547068e-16
F0.0
F-2.9793837036283984e-16
F-4.194972254708785e-15
F0.0
F-3.336909748063806e-16
F-1.9068055703221747e-15
F4.528663229515165e-16
tp100
a(tag0
(g37
g2
Ntp101
Rp102
(lp103
I1
aI424000829
ababag0
(g30
g2
Ntp104
Rp105
(lp106
(F-0.004166474910311953
F-0.18248187572731847
F0.0
F0.013058190631428265
F1.2939179829038263
F-2.209885913080059
F0.021678581838328465
F0.08461076972130746
F-0.034625017816238446
tp107
a(F-0.003554305659227601
F0.02618011773294574
F0.0
F0.011267456713723936
F-0.2376856566677664
F0.8
F0.0185842079583476
F0.07264164065746094
F-0.029751959013698204
tp108
a(F-5.958767407256785e-17
F-1.3109288295964927e-15
F0.0
F8.342274370159498e-17
F0.0
F0.0
F-1.6684548740318997e-16
F5.720416710966514e-16
F5.005364622095699e-16
tp109
a(tag0
(g37
g2
Ntp110
Rp111
(lp112
I1
aI569561425
ababag0
(g30
g2
Ntp113
Rp114
(lp115
(F-0.00468384176208322
F-0.17867108217462255
F0.0
F0.014698288351306182
F1.259320316948414
F-2.093437435909146
F0.02438371023354989
F0.09518453026350499
F-0.03895573071623416
tp116
a(F-0.003554305659227606
F0.02618011773294577
F0.0
F0.011267456713723954
F-0.23768565666776587
F0.8
F0.018584207958347615
F0.07264164065746101
F-0.02975195901369822
tp117
a(F-5.95876740725679e-18
F1.6446198044028742e-15
F0.0
F1.4301041777416297e-16
F7.245861167224257e-15
F0.0
F4.0519618369346175e-16
F3.813611140644346e-16
F-7.150520888708149e-16
tp118
a(tag0
(g37
g2
Ntp119
Rp120
(lp121
I1
aI715122022
ababag0
(g30
g2
Ntp122
Rp123
(lp124
(F-0.005201208613854485
F-0.1748602886219266
F0.0
F0.0163383860711841
F1.2247226509930018
F-1.976988958738233
F0.02708883862877132
F0.1057582908057025
F-0.04328644361622989
tp125
a(F-0.0035543056592276063
F0.026180117732945794
F0.0
F0.011267456713723964
F-0.23768565666776534
F0.8
F0.018584207958347646
F0.07264164065746108
F-0.029751959013698273
tp126
a(F0.0
F-1.287093759967468e-15
F0.0
F0.0
F0.0
F0.0
F0.0
F5.720416710966525e-16
F0.0
tp127
a(tag0
(g37
g2
Ntp128
Rp129
(lp130
I1
aI860682618
ababag0
(g30
g2
Ntp131
Rp132
(lp133
(F-0.005718575465625751
F-0.17104949506923067
F0.0
F0.017978483791062018
F1.1901249850375897
F-1.86054048156732
F0.02979396702399275
F0.11633205134790002
F-0.04761715651622561
tp134
a(F-0.0035543056592276094
F0.026180117732945794
F0.0
F0.011267456713723952
F-0.2376856566677661
F0.8
F0.018584207958347657
F0.07264164065746118
F-0.029751959013698273
tp135
a(F-4.171137185079757e-17
F1.287093759967468e-15
F0.0
F-1.668454874031903e-16
F-1.0487430636771962e-14
F0.0
F1.668454874031903e-16
F6.673819496127612e-16
F0.0
tp136
a(tag0
(g37
g2
Ntp137
Rp138
(lp139
I2
aI6243215
ababag0
(g30
g2
Ntp140
Rp141
(lp142
(F-0.006235942317397017
F-0.16723870151653472
F0.0
F0.019618581510939932
F1.1555273190821773
F-1.7440920043964072
F0.03249909541921418
F0.12690581189009756
F-0.051947869416221336
tp143
a(F-0.0035543056592276063
F0.026180117732945887
F0.0
F0.01126745671372394
F-0.2376856566677661
F0.8
F0.018584207958347622
F0.07264164065746108
F-0.02975195901369825
tp144
a(F8.342274370159514e-17
F0.0
F0.0
F0.0
F1.0487430636771962e-14
F0.0
F-6.43546879983734e-16
F-1.9068055703221747e-15
F3.336909748063806e-16
tp145
a(tag0
(g37
g2
Ntp146
Rp147
(lp148
I2
aI151803811
ababag0
(g30
g2
Ntp149
Rp150
(lp151
(F-0.006753309169168282
F-0.16342790796383877
F0.0
F0.021258679230817847
F1.1209296531267652
F-1.6276435272254943
F0.0352042238144356
F0.13747957243229506
F-0.05627858231621705
tp152
a(F-0.0035543056592276033
F0.026180117732945794
F0.0
F0.011267456713723952
F-0.2376856566677661
F0.8
F0.018584207958347622
F0.07264164065746104
F-0.02975195901369825
tp153
a(F-4.171137185079757e-17
F-1.287093759967468e-15
F0.0
F1.668454874031903e-16
F-1.0487430636771962e-14
F0.0
F6.43546879983734e-16
F1.2394236207094136e-15
F-3.336909748063806e-16
tp154
a(tag0
(g37
g2
Ntp155
Rp156
(lp157
I2
aI297364408
ababag0
(g30
g2
Ntp158
Rp159
(lp160
(F-0.007270676020939547
F-0.15961711441114285
F0.0
F0.022898776950695764
F1.0863319871713528
F-1.5111950500545814
F0.037909352209657035
F0.14805333297449258
F-0.06060929521621278
tp161
a(F-0.0034347353597684706
F0.02529939310841138
F0.0
F0.010888408510622716
F-0.2296896799933565
F0.7730872218828542
F0.017959017126765266
F0.07019790521111141
F-0.028751074174340696
tp162
a(F0.0015857012244940003
F-0.011679874700350451
F0.0
F-0.005026810190479761
F0.10603996193863549
F-0.35690824065786037
F-0.00829107120804237
F-0.03240800020694475
F0.01327339918462947
tp163
a(tag0
(g37
g2
Ntp164
Rp165
(lp166
I2
aI442925004
ababag0
(g30
g2
Ntp167
Rp168
(lp169
(F-0.007788042872710813
F-0.1558063208584469
F0.0
F0.024538874670573682
F1.0517343212159407
F-1.3947465728836685
F0.04061448060487846
F0.15862709351669008
F-0.06494000811620851
tp170
a(F-0.0029566402517974795
F0.02177786530122057
F0.0
F0.00937280561920538
F-0.1977182176086536
F0.6654779943579744
F0.015459226798565859
F0.06042676666449977
F-0.02474909251582075
tp171
a(F0.004037529648269449
F-0.029739423582642668
F0.0
F-0.012799318602255394
F0.2700001006590469
F-0.9087636315773308
F-0.021110815392770342
F-0.08251760145951191
F0.0337968728997857
tp172
a(tag0
(g37
g2
Ntp173
Rp174
(lp175
I2
aI598985666
ababag0
(g30
g2
Ntp176
Rp177
(lp178
(F-0.008305409724482078
F-0.15199552730575094
F0.0
F0.026178972390451596
F1.0171366552605283
F-1.2782980957127554
F0.043319609000099894
F0.1692008540588876
F-0.06927072101620424
tp179
a(F-0.0018318098184349233
F0.013492648440768609
F0.0
F0.005806995744275774
F-0.12249788322363458
F0.41230214709963897
F0.00957788605421616
F0.03743788051488951
F-0.015333495727210308
tp180
a(F0.004476789092742292
F-0.03297489770168826
F0.0
F-0.014191809077530744
F0.2993745212961753
F-1.0076317620280686
F-0.02340754776370737
F-0.0914950304653589
F0.03747377360594962
tp181
a(tag0
(g37
g2
Ntp182
Rp183
(lp184
I2
aI798117253
ababag0
(g30
g2
Ntp185
Rp186
(lp187
(F-0.008822776576253345
F-0.14818473375305502
F0.0
F0.027819070110329514
F0.9825389893051161
F-1.1618496185418425
F0.04602473739532132
F0.17977461460108513
F-0.07360143391619996
tp188
a(F0.0
F0.0
F0.0
F0.0
F0.0
F0.0
F0.0
F0.0
F0.0
tp189
a(F0.004388758895776696
F-0.03232648950566487
F0.0
F-0.013912745730450473
F0.29348771324463707
F-0.9878180025136993
F-0.022947268979642683
F-0.08969590046696398
F0.03673690090472604
tp190
a(tag0
(g37
g2
Ntp191
Rp192
(lp193
I3
aI283677849
ababaabag0
(ctrajectory_msgs.msg._MultiDOFJointTrajectory
MultiDOFJointTrajectory
p194
g2
Ntp195
Rp196
(lp197
g0
(g10
g2
Ntp198
Rp199
(lp200
I0
ag0
(g14
g2
Ntp201
Rp202
(lp203
I0
aI0
abaS''
p204
aba(lp205
a(lp206
abab.